target datalayout = "e-m:e-p270:32:32-p271:32:32-p272:64:64-i64:64-i128:128-f80:128-n8:16:32:64-S128"
target triple = "x86_64-pc-linux-gnu"

%struct.pathspec_item = type { ptr, ptr, i32, i32, i32, i32, i32, i32, ptr, ptr }
%struct.attr_match = type { ptr, i32 }
%struct.attr_check = type { i32, i32, ptr, i32, ptr, ptr }
%struct.attr_check_item = type { ptr, ptr }

@git_attr__true = external constant [0 x i8], align 1
@git_attr__false = external constant [0 x i8], align 1

; Function Attrs: nounwind uwtable
define dso_local i32 @match_pathspec_attrs(ptr noundef %0, ptr noundef %1, i32 noundef %2, ptr noundef %3) #0 {
  %5 = alloca i32, align 4
  %6 = alloca ptr, align 8
  %7 = alloca ptr, align 8
  %8 = alloca i32, align 4
  %9 = alloca ptr, align 8
  %10 = alloca i32, align 4
  %11 = alloca ptr, align 8
  %12 = alloca ptr, align 8
  %13 = alloca i32, align 4
  %14 = alloca i32, align 4
  %15 = alloca i32, align 4
  store ptr %0, ptr %6, align 8, !tbaa !9
  store ptr %1, ptr %7, align 8, !tbaa !11
  store i32 %2, ptr %8, align 4, !tbaa !13
  store ptr %3, ptr %9, align 8, !tbaa !72
  call void @llvm.lifetime.start.p0(i64 4, ptr %10) #10
  call void @llvm.lifetime.start.p0(i64 8, ptr %11) #10
  store ptr null, ptr %11, align 8, !tbaa !11
  %16 = load ptr, ptr %7, align 8, !tbaa !11
  %17 = load i32, ptr %8, align 4, !tbaa !13
  %18 = sext i32 %17 to i64
  %19 = getelementptr inbounds i8, ptr %16, i64 %18
  %20 = load i8, ptr %19, align 1, !tbaa !18
  %21 = icmp ne i8 %20, 0
  br i1 %21, label %22, label %27

22:                                               ; preds = %4
  %23 = load ptr, ptr %7, align 8, !tbaa !11
  %24 = load i32, ptr %8, align 4, !tbaa !13
  %25 = sext i32 %24 to i64
  %26 = call ptr @xmemdupz(ptr noundef %23, i64 noundef %25)
  store ptr %26, ptr %11, align 8, !tbaa !11
  store ptr %26, ptr %7, align 8, !tbaa !11
  br label %27

27:                                               ; preds = %22, %4
  %28 = load ptr, ptr %6, align 8, !tbaa !9
  %29 = load ptr, ptr %7, align 8, !tbaa !11
  %30 = load ptr, ptr %9, align 8, !tbaa !72
  %31 = getelementptr inbounds nuw %struct.pathspec_item, ptr %30, i32 0, i32 9
  %32 = load ptr, ptr %31, align 8, !tbaa !86
  call void @git_check_attr(ptr noundef %28, ptr noundef %29, ptr noundef %32)
  %33 = load ptr, ptr %11, align 8, !tbaa !11
  call void @free(ptr noundef %33) #10
  store i32 0, ptr %10, align 4, !tbaa !13
  br label %34

34:                                               ; preds = %108, %27
  %35 = load i32, ptr %10, align 4, !tbaa !13
  %36 = load ptr, ptr %9, align 8, !tbaa !72
  %37 = getelementptr inbounds nuw %struct.pathspec_item, ptr %36, i32 0, i32 7
  %38 = load i32, ptr %37, align 4, !tbaa !88
  %39 = icmp slt i32 %35, %38
  br i1 %39, label %40, label %111

40:                                               ; preds = %34
  call void @llvm.lifetime.start.p0(i64 8, ptr %12) #10
  call void @llvm.lifetime.start.p0(i64 4, ptr %13) #10
  call void @llvm.lifetime.start.p0(i64 4, ptr %14) #10
  %41 = load ptr, ptr %9, align 8, !tbaa !72
  %42 = getelementptr inbounds nuw %struct.pathspec_item, ptr %41, i32 0, i32 9
  %43 = load ptr, ptr %42, align 8, !tbaa !86
  %44 = getelementptr inbounds nuw %struct.attr_check, ptr %43, i32 0, i32 2
  %45 = load ptr, ptr %44, align 8, !tbaa !105
  %46 = load i32, ptr %10, align 4, !tbaa !13
  %47 = sext i32 %46 to i64
  %48 = getelementptr inbounds %struct.attr_check_item, ptr %45, i64 %47
  %49 = getelementptr inbounds nuw %struct.attr_check_item, ptr %48, i32 0, i32 1
  %50 = load ptr, ptr %49, align 8, !tbaa !110
  store ptr %50, ptr %12, align 8, !tbaa !11
  %51 = load ptr, ptr %9, align 8, !tbaa !72
  %52 = getelementptr inbounds nuw %struct.pathspec_item, ptr %51, i32 0, i32 8
  %53 = load ptr, ptr %52, align 8, !tbaa !87
  %54 = load i32, ptr %10, align 4, !tbaa !13
  %55 = sext i32 %54 to i64
  %56 = getelementptr inbounds %struct.attr_match, ptr %53, i64 %55
  %57 = getelementptr inbounds nuw %struct.attr_match, ptr %56, i32 0, i32 1
  %58 = load i32, ptr %57, align 8, !tbaa !113
  store i32 %58, ptr %14, align 4, !tbaa !13
  %59 = load ptr, ptr %12, align 8, !tbaa !11
  %60 = icmp eq ptr %59, @git_attr__true
  br i1 %60, label %61, label %65

61:                                               ; preds = %40
  %62 = load i32, ptr %14, align 4, !tbaa !13
  %63 = icmp eq i32 %62, 0
  %64 = zext i1 %63 to i32
  store i32 %64, ptr %13, align 4, !tbaa !13
  br label %100

65:                                               ; preds = %40
  %66 = load ptr, ptr %12, align 8, !tbaa !11
  %67 = icmp eq ptr %66, @git_attr__false
  br i1 %67, label %68, label %72

68:                                               ; preds = %65
  %69 = load i32, ptr %14, align 4, !tbaa !13
  %70 = icmp eq i32 %69, 1
  %71 = zext i1 %70 to i32
  store i32 %71, ptr %13, align 4, !tbaa !13
  br label %99

72:                                               ; preds = %65
  %73 = load ptr, ptr %12, align 8, !tbaa !11
  %74 = icmp eq ptr %73, null
  br i1 %74, label %75, label %79

75:                                               ; preds = %72
  %76 = load i32, ptr %14, align 4, !tbaa !13
  %77 = icmp eq i32 %76, 3
  %78 = zext i1 %77 to i32
  store i32 %78, ptr %13, align 4, !tbaa !13
  br label %98

79:                                               ; preds = %72
  %80 = load i32, ptr %14, align 4, !tbaa !13
  %81 = icmp eq i32 %80, 2
  br i1 %81, label %82, label %95

82:                                               ; preds = %79
  %83 = load ptr, ptr %9, align 8, !tbaa !72
  %84 = getelementptr inbounds nuw %struct.pathspec_item, ptr %83, i32 0, i32 8
  %85 = load ptr, ptr %84, align 8, !tbaa !87
  %86 = load i32, ptr %10, align 4, !tbaa !13
  %87 = sext i32 %86 to i64
  %88 = getelementptr inbounds %struct.attr_match, ptr %85, i64 %87
  %89 = getelementptr inbounds nuw %struct.attr_match, ptr %88, i32 0, i32 0
  %90 = load ptr, ptr %89, align 8, !tbaa !99
  %91 = load ptr, ptr %12, align 8, !tbaa !11
  %92 = call i32 @strcmp(ptr noundef %90, ptr noundef %91) #11
  %93 = icmp ne i32 %92, 0
  %94 = xor i1 %93, true
  br label %95

95:                                               ; preds = %82, %79
  %96 = phi i1 [ false, %79 ], [ %94, %82 ]
  %97 = zext i1 %96 to i32
  store i32 %97, ptr %13, align 4, !tbaa !13
  br label %98

98:                                               ; preds = %95, %75
  br label %99

99:                                               ; preds = %98, %68
  br label %100

100:                                              ; preds = %99, %61
  %101 = load i32, ptr %13, align 4, !tbaa !13
  %102 = icmp ne i32 %101, 0
  br i1 %102, label %104, label %103

103:                                              ; preds = %100
  store i32 0, ptr %5, align 4
  store i32 1, ptr %15, align 4
  br label %105

104:                                              ; preds = %100
  store i32 0, ptr %15, align 4
  br label %105

105:                                              ; preds = %104, %103
  call void @llvm.lifetime.end.p0(i64 4, ptr %14) #10
  call void @llvm.lifetime.end.p0(i64 4, ptr %13) #10
  call void @llvm.lifetime.end.p0(i64 8, ptr %12) #10
  %106 = load i32, ptr %15, align 4
  switch i32 %106, label %112 [
    i32 0, label %107
  ]

107:                                              ; preds = %105
  br label %108

108:                                              ; preds = %107
  %109 = load i32, ptr %10, align 4, !tbaa !13
  %110 = add nsw i32 %109, 1
  store i32 %110, ptr %10, align 4, !tbaa !13
  br label %34, !llvm.loop !114

111:                                              ; preds = %34
  store i32 1, ptr %5, align 4
  store i32 1, ptr %15, align 4
  br label %112

112:                                              ; preds = %111, %105
  call void @llvm.lifetime.end.p0(i64 8, ptr %11) #10
  call void @llvm.lifetime.end.p0(i64 4, ptr %10) #10
  %113 = load i32, ptr %5, align 4
  ret i32 %113
}