; Function Attrs: nounwind uwtable
define dso_local range(i32 0, 2) i32 @match_pathspec_attrs(ptr noundef %0, ptr noundef %1, i32 noundef %2, ptr noundef readonly captures(none) %3) local_unnamed_addr #0 {
  %5 = sext i32 %2 to i64
  %6 = getelementptr inbounds i8, ptr %1, i64 %5
  %7 = load i8, ptr %6, align 1, !tbaa !11
  %.not = icmp eq i8 %7, 0
  br i1 %.not, label %10, label %8

8:                                                ; preds = %4
  %9 = tail call ptr @xmemdupz(ptr noundef nonnull %1, i64 noundef %5) #17
  br label %10

10:                                               ; preds = %8, %4
  %.030 = phi ptr [ %9, %8 ], [ null, %4 ]
  %.029 = phi ptr [ %9, %8 ], [ %1, %4 ]
  %11 = getelementptr inbounds nuw i8, ptr %3, i64 48
  %12 = load ptr, ptr %11, align 8, !tbaa !77
  tail call void @git_check_attr(ptr noundef %0, ptr noundef %.029, ptr noundef %12) #17
  tail call void @free(ptr noundef %.030) #17
  %13 = getelementptr inbounds nuw i8, ptr %3, i64 36
  %14 = load i32, ptr %13, align 4, !tbaa !83
  %15 = icmp sgt i32 %14, 0
  br i1 %15, label %.lr.ph, label %.critedge

.lr.ph:                                           ; preds = %10
  %16 = load ptr, ptr %11, align 8, !tbaa !77
  %17 = getelementptr inbounds nuw i8, ptr %16, i64 8
  %18 = load ptr, ptr %17, align 8, !tbaa !114
  %19 = getelementptr inbounds nuw i8, ptr %3, i64 40
  %20 = load ptr, ptr %19, align 8, !tbaa !78
  %wide.trip.count = zext nneg i32 %14 to i64
  br label %21

21:                                               ; preds = %.lr.ph, %40
  %indvars.iv = phi i64 [ 0, %.lr.ph ], [ %indvars.iv.next, %40 ]
  %22 = getelementptr inbounds nuw %struct.attr_check_item, ptr %18, i64 %indvars.iv, i32 1
  %23 = load ptr, ptr %22, align 8, !tbaa !115
  %24 = getelementptr inbounds nuw %struct.attr_match, ptr %20, i64 %indvars.iv
  %25 = getelementptr inbounds nuw i8, ptr %24, i64 8
  %26 = load i32, ptr %25, align 8, !tbaa !86
  %27 = icmp eq ptr %23, @git_attr__true
  br i1 %27, label %28, label %29

28:                                               ; preds = %21
  %.not37 = icmp eq i32 %26, 0
  br i1 %.not37, label %40, label %.critedge

29:                                               ; preds = %21
  %30 = icmp eq ptr %23, @git_attr__false
  br i1 %30, label %31, label %32

31:                                               ; preds = %29
  %.not36 = icmp eq i32 %26, 1
  br i1 %.not36, label %40, label %.critedge

32:                                               ; preds = %29
  %33 = icmp eq ptr %23, null
  br i1 %33, label %34, label %35

34:                                               ; preds = %32
  %.not35 = icmp eq i32 %26, 3
  br i1 %.not35, label %40, label %.critedge

35:                                               ; preds = %32
  %36 = icmp eq i32 %26, 2
  br i1 %36, label %37, label %.critedge

37:                                               ; preds = %35
  %38 = load ptr, ptr %24, align 8, !tbaa !89
  %39 = tail call i32 @strcmp(ptr noundef nonnull dereferenceable(1) %38, ptr noundef nonnull dereferenceable(1) %23) #19
  %.not33.not = icmp eq i32 %39, 0
  br i1 %.not33.not, label %40, label %.critedge

40:                                               ; preds = %34, %31, %28, %37
  %indvars.iv.next = add nuw nsw i64 %indvars.iv, 1
  %exitcond.not = icmp eq i64 %indvars.iv.next, %wide.trip.count
  br i1 %exitcond.not, label %.critedge, label %21, !llvm.loop !118

.critedge:                                        ; preds = %37, %40, %35, %28, %31, %34, %10
  %.2 = phi i32 [ 1, %10 ], [ 0, %34 ], [ 0, %31 ], [ 0, %28 ], [ 0, %35 ], [ 1, %40 ], [ 0, %37 ]
  ret i32 %.2
}